target datalayout = "e-m:e-p270:32:32-p271:32:32-p272:64:64-i64:64-i128:128-f80:128-n8:16:32:64-S128"
target triple = "x86_64-pc-linux-gnu"

%union.pthread_mutex_t = type { %struct.__pthread_mutex_s }
%struct.__pthread_mutex_s = type { i32, i32, i32, i32, i32, i16, i16, %struct.__pthread_internal_list }
%struct.__pthread_internal_list = type { ptr, ptr }
%struct.thread_status_t = type { ptr, i64, %union.pthread_mutex_t, %union.pthread_cond_t, [24 x i8] }
%union.pthread_cond_t = type { %struct.__pthread_cond_s }
%struct.__pthread_cond_s = type { %union.__atomic_wide_counter, %union.__atomic_wide_counter, [2 x i32], [2 x i32], i32, i32, [2 x i32] }
%union.__atomic_wide_counter = type { i64 }

@thread_timeout = internal global i32 268435456, align 4
@thread_status = internal global [16 x %struct.thread_status_t] zeroinitializer, align 128

; Function Attrs: inlinehint nounwind uwtable
define internal i64 @rpcc() #7 {
  %1 = alloca i64, align 8
  %2 = alloca i64, align 8
  call void @llvm.lifetime.start.p0(i64 8, ptr %1) #8
  call void @llvm.lifetime.start.p0(i64 8, ptr %2) #8
  %3 = call { i64, i64 } asm sideeffect "rdtsc", "={ax},={dx},~{dirflag},~{fpsr},~{flags}"() #8, !srcloc !78
  %4 = extractvalue { i64, i64 } %3, 0
  %5 = extractvalue { i64, i64 } %3, 1
  store i64 %4, ptr %1, align 8, !tbaa !7
  store i64 %5, ptr %2, align 8, !tbaa !7
  %6 = load i64, ptr %1, align 8, !tbaa !7
  %7 = load i64, ptr %2, align 8, !tbaa !7
  %8 = shl i64 %7, 32
  %9 = add i64 %6, %8
  call void @llvm.lifetime.end.p0(i64 8, ptr %2) #8
  call void @llvm.lifetime.end.p0(i64 8, ptr %1) #8
  ret i64 %9
}

; Function Attrs: nounwind uwtable
define internal ptr @blas_thread_server(ptr noundef %0) #0 {
  %2 = alloca ptr, align 8
  %3 = alloca i64, align 8
  %4 = alloca i32, align 4
  %5 = alloca ptr, align 8
  %6 = alloca ptr, align 8
  %7 = alloca ptr, align 8
  %8 = alloca ptr, align 8
  %9 = alloca ptr, align 8
  %10 = alloca ptr, align 8
  %11 = alloca ptr, align 8
  store ptr %0, ptr %2, align 8, !tbaa !9
  call void @llvm.lifetime.start.p0(i64 8, ptr %3) #8
  %12 = load ptr, ptr %2, align 8, !tbaa !9
  %13 = ptrtoint ptr %12 to i64
  store i64 %13, ptr %3, align 8, !tbaa !7
  call void @llvm.lifetime.start.p0(i64 4, ptr %4) #8
  call void @llvm.lifetime.start.p0(i64 8, ptr %5) #8
  call void @llvm.lifetime.start.p0(i64 8, ptr %6) #8
  br label %14

14:                                               ; preds = %111, %1
  br label %15

15:                                               ; preds = %14
  %16 = call i64 @rpcc()
  %17 = trunc i64 %16 to i32
  store i32 %17, ptr %4, align 4, !tbaa !3
  %18 = load i64, ptr %3, align 8, !tbaa !7
  %19 = getelementptr inbounds [16 x %struct.thread_status_t], ptr @thread_status, i64 0, i64 %18
  %20 = getelementptr inbounds nuw %struct.thread_status_t, ptr %19, i32 0, i32 0
  %21 = load atomic volatile i64, ptr %20 monotonic, align 128
  store i64 %21, ptr %7, align 8
  %22 = load ptr, ptr %7, align 8, !tbaa !11
  store ptr %22, ptr %6, align 8, !tbaa !11
  br label %23

23:                                               ; preds = %85, %15
  %24 = load ptr, ptr %6, align 8, !tbaa !11
  %25 = icmp ne ptr %24, null
  br i1 %25, label %26, label %29

26:                                               ; preds = %23
  %27 = load ptr, ptr %6, align 8, !tbaa !11
  %28 = icmp eq ptr %27, inttoptr (i64 1 to ptr)
  br label %29

29:                                               ; preds = %26, %23
  %30 = phi i1 [ true, %23 ], [ %28, %26 ]
  br i1 %30, label %31, label %91

31:                                               ; preds = %29
  call void asm sideeffect "nop;nop;nop;nop;nop;nop;nop;nop;\0A", "~{dirflag},~{fpsr},~{flags}"() #8, !srcloc !24
  %32 = call i64 @rpcc()
  %33 = trunc i64 %32 to i32
  %34 = load i32, ptr %4, align 4, !tbaa !3
  %35 = sub i32 %33, %34
  %36 = load i32, ptr @thread_timeout, align 4, !tbaa !3
  %37 = icmp ugt i32 %35, %36
  br i1 %37, label %38, label %85

38:                                               ; preds = %31
  %39 = load i64, ptr %3, align 8, !tbaa !7
  %40 = getelementptr inbounds [16 x %struct.thread_status_t], ptr @thread_status, i64 0, i64 %39
  %41 = getelementptr inbounds nuw %struct.thread_status_t, ptr %40, i32 0, i32 0
  %42 = load atomic volatile i64, ptr %41 monotonic, align 128
  store i64 %42, ptr %8, align 8
  %43 = load ptr, ptr %8, align 8, !tbaa !11
  %44 = icmp ne ptr %43, null
  br i1 %44, label %82, label %45

45:                                               ; preds = %38
  %46 = load i64, ptr %3, align 8, !tbaa !7
  %47 = getelementptr inbounds [16 x %struct.thread_status_t], ptr @thread_status, i64 0, i64 %46
  %48 = getelementptr inbounds nuw %struct.thread_status_t, ptr %47, i32 0, i32 2
  %49 = call i32 @pthread_mutex_lock(ptr noundef %48) #8
  %50 = load i64, ptr %3, align 8, !tbaa !7
  %51 = getelementptr inbounds [16 x %struct.thread_status_t], ptr @thread_status, i64 0, i64 %50
  %52 = getelementptr inbounds nuw %struct.thread_status_t, ptr %51, i32 0, i32 1
  store volatile i64 2, ptr %52, align 8, !tbaa !13
  br label %53

53:                                               ; preds = %69, %45
  %54 = load i64, ptr %3, align 8, !tbaa !7
  %55 = getelementptr inbounds [16 x %struct.thread_status_t], ptr @thread_status, i64 0, i64 %54
  %56 = getelementptr inbounds nuw %struct.thread_status_t, ptr %55, i32 0, i32 1
  %57 = load volatile i64, ptr %56, align 8, !tbaa !13
  %58 = icmp eq i64 %57, 2
  br i1 %58, label %59, label %67

59:                                               ; preds = %53
  %60 = load i64, ptr %3, align 8, !tbaa !7
  %61 = getelementptr inbounds [16 x %struct.thread_status_t], ptr @thread_status, i64 0, i64 %60
  %62 = getelementptr inbounds nuw %struct.thread_status_t, ptr %61, i32 0, i32 0
  %63 = load atomic volatile i64, ptr %62 monotonic, align 128
  store i64 %63, ptr %9, align 8
  %64 = load ptr, ptr %9, align 8, !tbaa !11
  %65 = icmp ne ptr %64, null
  %66 = xor i1 %65, true
  br label %67

67:                                               ; preds = %59, %53
  %68 = phi i1 [ false, %53 ], [ %66, %59 ]
  br i1 %68, label %69, label %77

69:                                               ; preds = %67
  %70 = load i64, ptr %3, align 8, !tbaa !7
  %71 = getelementptr inbounds [16 x %struct.thread_status_t], ptr @thread_status, i64 0, i64 %70
  %72 = getelementptr inbounds nuw %struct.thread_status_t, ptr %71, i32 0, i32 3
  %73 = load i64, ptr %3, align 8, !tbaa !7
  %74 = getelementptr inbounds [16 x %struct.thread_status_t], ptr @thread_status, i64 0, i64 %73
  %75 = getelementptr inbounds nuw %struct.thread_status_t, ptr %74, i32 0, i32 2
  %76 = call i32 @pthread_cond_wait(ptr noundef %72, ptr noundef %75)
  br label %53, !llvm.loop !25

77:                                               ; preds = %67
  %78 = load i64, ptr %3, align 8, !tbaa !7
  %79 = getelementptr inbounds [16 x %struct.thread_status_t], ptr @thread_status, i64 0, i64 %78
  %80 = getelementptr inbounds nuw %struct.thread_status_t, ptr %79, i32 0, i32 2
  %81 = call i32 @pthread_mutex_unlock(ptr noundef %80) #8
  br label %82

82:                                               ; preds = %77, %38
  %83 = call i64 @rpcc()
  %84 = trunc i64 %83 to i32
  store i32 %84, ptr %4, align 4, !tbaa !3
  br label %85

85:                                               ; preds = %82, %31
  %86 = load i64, ptr %3, align 8, !tbaa !7
  %87 = getelementptr inbounds [16 x %struct.thread_status_t], ptr @thread_status, i64 0, i64 %86
  %88 = getelementptr inbounds nuw %struct.thread_status_t, ptr %87, i32 0, i32 0
  %89 = load atomic volatile i64, ptr %88 monotonic, align 128
  store i64 %89, ptr %10, align 8
  %90 = load ptr, ptr %10, align 8, !tbaa !11
  store ptr %90, ptr %6, align 8, !tbaa !11
  br label %23, !llvm.loop !26

91:                                               ; preds = %29
  %92 = load i64, ptr %3, align 8, !tbaa !7
  %93 = getelementptr inbounds [16 x %struct.thread_status_t], ptr @thread_status, i64 0, i64 %92
  %94 = getelementptr inbounds nuw %struct.thread_status_t, ptr %93, i32 0, i32 0
  %95 = load atomic volatile i64, ptr %94 monotonic, align 128
  store i64 %95, ptr %11, align 8
  %96 = load ptr, ptr %11, align 8, !tbaa !11
  store ptr %96, ptr %5, align 8, !tbaa !11
  br label %97

97:                                               ; preds = %91
  call void asm sideeffect "", "~{memory},~{dirflag},~{fpsr},~{flags}"() #8, !srcloc !27
  br label %98

98:                                               ; preds = %97
  br label %99

99:                                               ; preds = %98
  %100 = load ptr, ptr %5, align 8, !tbaa !11
  %101 = ptrtoint ptr %100 to i64
  %102 = icmp eq i64 %101, -1
  br i1 %102, label %103, label %104

103:                                              ; preds = %99
  br label %112

104:                                              ; preds = %99
  %105 = load ptr, ptr %5, align 8, !tbaa !11
  %106 = icmp ne ptr %105, null
  br i1 %106, label %107, label %111

107:                                              ; preds = %104
  %108 = load i64, ptr %3, align 8, !tbaa !7
  %109 = trunc i64 %108 to i32
  %110 = load ptr, ptr %5, align 8, !tbaa !11
  call void @exec_threads(i32 noundef %109, ptr noundef %110, i32 noundef 0)
  br label %111

111:                                              ; preds = %107, %104
  br label %14

112:                                              ; preds = %103
  call void @llvm.lifetime.end.p0(i64 8, ptr %6) #8
  call void @llvm.lifetime.end.p0(i64 8, ptr %5) #8
  call void @llvm.lifetime.end.p0(i64 4, ptr %4) #8
  call void @llvm.lifetime.end.p0(i64 8, ptr %3) #8
  ret ptr null
}