; Function Attrs: nounwind uwtable
define internal noundef ptr @blas_thread_server(ptr noundef %0) #0 {
  %2 = ptrtoint ptr %0 to i64
  %3 = getelementptr inbounds [16 x %struct.thread_status_t], ptr @thread_status, i64 0, i64 %2
  %4 = getelementptr inbounds nuw i8, ptr %3, i64 16
  %5 = getelementptr inbounds nuw i8, ptr %3, i64 8
  %6 = getelementptr inbounds nuw i8, ptr %3, i64 56
  %7 = trunc i64 %2 to i32
  br label %8

8:                                                ; preds = %.backedge, %1
  %9 = tail call { i64, i64 } asm sideeffect "rdtsc", "={ax},={dx},~{dirflag},~{fpsr},~{flags}"() #10, !srcloc !23
  %10 = load atomic volatile i64, ptr %3 monotonic, align 128
  %11 = icmp ult i64 %10, 2
  br i1 %11, label %.lr.ph29.preheader, label %._crit_edge

.lr.ph29.preheader:                               ; preds = %8
  %12 = extractvalue { i64, i64 } %9, 0
  %13 = trunc i64 %12 to i32
  br label %.lr.ph29

.lr.ph29:                                         ; preds = %.lr.ph29.preheader, %36
  %.028 = phi i32 [ %.1, %36 ], [ %13, %.lr.ph29.preheader ]
  tail call void asm sideeffect "nop;nop;nop;nop;nop;nop;nop;nop;\0A", "~{dirflag},~{fpsr},~{flags}"() #10, !srcloc !24
  %14 = tail call { i64, i64 } asm sideeffect "rdtsc", "={ax},={dx},~{dirflag},~{fpsr},~{flags}"() #10, !srcloc !23
  %15 = extractvalue { i64, i64 } %14, 0
  %16 = trunc i64 %15 to i32
  %17 = sub i32 %16, %.028
  %18 = load i32, ptr @thread_timeout, align 4, !tbaa !3
  %19 = icmp ugt i32 %17, %18
  br i1 %19, label %20, label %36

20:                                               ; preds = %.lr.ph29
  %21 = load atomic volatile i64, ptr %3 monotonic, align 128
  %.not25 = icmp eq i64 %21, 0
  br i1 %.not25, label %22, label %32

22:                                               ; preds = %20
  %23 = tail call i32 @pthread_mutex_lock(ptr noundef nonnull %4) #10
  store volatile i64 2, ptr %5, align 8, !tbaa !14
  %24 = load volatile i64, ptr %5, align 8, !tbaa !14
  %25 = icmp eq i64 %24, 2
  br i1 %25, label %.lr.ph, label %.critedge

.lr.ph:                                           ; preds = %22, %27
  %26 = load atomic volatile i64, ptr %3 monotonic, align 128
  %.not26 = icmp eq i64 %26, 0
  br i1 %.not26, label %27, label %.critedge

27:                                               ; preds = %.lr.ph
  %28 = tail call i32 @pthread_cond_wait(ptr noundef nonnull %6, ptr noundef nonnull %4) #10
  %29 = load volatile i64, ptr %5, align 8, !tbaa !14
  %30 = icmp eq i64 %29, 2
  br i1 %30, label %.lr.ph, label %.critedge, !llvm.loop !25

.critedge:                                        ; preds = %.lr.ph, %27, %22
  %31 = tail call i32 @pthread_mutex_unlock(ptr noundef nonnull %4) #10
  br label %32

32:                                               ; preds = %.critedge, %20
  %33 = tail call { i64, i64 } asm sideeffect "rdtsc", "={ax},={dx},~{dirflag},~{fpsr},~{flags}"() #10, !srcloc !23
  %34 = extractvalue { i64, i64 } %33, 0
  %35 = trunc i64 %34 to i32
  br label %36

36:                                               ; preds = %32, %.lr.ph29
  %.1 = phi i32 [ %35, %32 ], [ %.028, %.lr.ph29 ]
  %37 = load atomic volatile i64, ptr %3 monotonic, align 128
  %38 = icmp ult i64 %37, 2
  br i1 %38, label %.lr.ph29, label %._crit_edge, !llvm.loop !26

._crit_edge:                                      ; preds = %36, %8
  %39 = load atomic volatile i64, ptr %3 monotonic, align 128
  tail call void asm sideeffect "", "~{memory},~{dirflag},~{fpsr},~{flags}"() #10, !srcloc !27
  switch i64 %39, label %40 [
    i64 -1, label %42
    i64 0, label %.backedge
  ]

.backedge:                                        ; preds = %._crit_edge, %40
  br label %8

40:                                               ; preds = %._crit_edge
  %41 = inttoptr i64 %39 to ptr
  tail call void @exec_threads(i32 noundef %7, ptr noundef nonnull %41, i32 poison)
  br label %.backedge

42:                                               ; preds = %._crit_edge
  ret ptr null
}